target datalayout = "e-m:e-p270:32:32-p271:32:32-p272:64:64-i64:64-i128:128-f80:128-n8:16:32:64-S128"
target triple = "x86_64-pc-linux-gnu"

%"class.gmx::MttkData" = type { %"class.gmx::ICheckpointHelperClient", float, float, float, double, double, double, float, [3 x [3 x float]], float, float, float, ptr, ptr, %"class.std::__cxx11::basic_string" }
%"class.gmx::ICheckpointHelperClient" = type { ptr }
%"class.std::__cxx11::basic_string" = type { %"struct.std::__cxx11::basic_string<char>::_Alloc_hider", i64, %union.anon }
%"struct.std::__cxx11::basic_string<char>::_Alloc_hider" = type { ptr }
%union.anon = type { i64, [8 x i8] }

; Function Attrs: mustprogress uwtable
define void @_ZN3gmx8MttkData5scaleEfb(ptr noundef nonnull align 8 dereferenceable(152) %0, float noundef %1, i1 noundef zeroext %2) #1 align 2 {
  %4 = alloca ptr, align 8
  %5 = alloca float, align 4
  %6 = alloca i8, align 1
  store ptr %0, ptr %4, align 8, !tbaa !4
  store float %1, ptr %5, align 4, !tbaa !111
  %7 = zext i1 %2 to i8
  store i8 %7, ptr %6, align 1, !tbaa !357
  %8 = load ptr, ptr %4, align 8
  %9 = load float, ptr %5, align 4, !tbaa !111
  %10 = getelementptr inbounds nuw %"class.gmx::MttkData", ptr %8, i32 0, i32 2
  %11 = load float, ptr %10, align 4, !tbaa !713
  %12 = fmul float %11, %9
  store float %12, ptr %10, align 4, !tbaa !713
  %13 = load i8, ptr %6, align 1, !tbaa !357, !range !406, !noundef !407
  %14 = trunc i8 %13 to i1
  br i1 %14, label %15, label %16

15:                                               ; preds = %3
  call void @_ZN3gmx8MttkData25calculateIntegralIfNeededEv(ptr noundef nonnull align 8 dereferenceable(152) %8)
  br label %16

16:                                               ; preds = %15, %3
  call void @_ZN3gmx8MttkData20updateScalingFactorsEv(ptr noundef nonnull align 8 dereferenceable(152) %8)
  ret void
}