; Function Attrs: mustprogress uwtable
define void @_ZN3gmx8MttkData5scaleEfb(ptr noundef nonnull align 8 captures(none) dereferenceable(152) %0, float noundef %1, i1 noundef zeroext %2) local_unnamed_addr #1 align 2 {
  %4 = getelementptr inbounds nuw i8, ptr %0, i64 12
  %5 = load float, ptr %4, align 4, !tbaa !328
  %6 = fmul float %1, %5
  store float %6, ptr %4, align 4, !tbaa !328
  br i1 %2, label %7, label %8

7:                                                ; preds = %3
  tail call void @_ZN3gmx8MttkData25calculateIntegralIfNeededEv(ptr noundef nonnull align 8 dereferenceable(152) %0)
  br label %8

8:                                                ; preds = %7, %3
  tail call void @_ZN3gmx8MttkData20updateScalingFactorsEv(ptr noundef nonnull align 8 dereferenceable(152) %0)
  ret void
}